target datalayout = "e-m:e-p270:32:32-p271:32:32-p272:64:64-i64:64-i128:128-f80:128-n8:16:32:64-S128"
target triple = "x86_64-pc-linux-gnu"

%struct.RICEContext = type { %struct.GetBitContext, i32, i32, i32, i32, i32, i32 }
%struct.GetBitContext = type { ptr, ptr, i32, i32, i32 }

; Function Attrs: inlinehint nounwind uwtable
define internal i32 @get_bits_count(ptr noundef %0) #5 {
  %2 = alloca ptr, align 8
  store ptr %0, ptr %2, align 8, !tbaa !65
  %3 = load ptr, ptr %2, align 8, !tbaa !65
  %4 = getelementptr inbounds nuw %struct.GetBitContext, ptr %3, i32 0, i32 2
  %5 = load i32, ptr %4, align 8, !tbaa !69
  ret i32 %5
}

; Function Attrs: nounwind uwtable
define internal i32 @loco_get_rice_param(ptr noundef %0) #1 {
  %2 = alloca ptr, align 8
  %3 = alloca i32, align 4
  %4 = alloca i32, align 4
  store ptr %0, ptr %2, align 8, !tbaa !67
  call void @llvm.lifetime.start.p0(i64 4, ptr %3) #9
  store i32 0, ptr %3, align 4, !tbaa !36
  call void @llvm.lifetime.start.p0(i64 4, ptr %4) #9
  %5 = load ptr, ptr %2, align 8, !tbaa !67
  %6 = getelementptr inbounds nuw %struct.RICEContext, ptr %5, i32 0, i32 5
  %7 = load i32, ptr %6, align 8, !tbaa !59
  store i32 %7, ptr %4, align 4, !tbaa !36
  br label %8

8:                                                ; preds = %19, %1
  %9 = load ptr, ptr %2, align 8, !tbaa !67
  %10 = getelementptr inbounds nuw %struct.RICEContext, ptr %9, i32 0, i32 4
  %11 = load i32, ptr %10, align 4, !tbaa !58
  %12 = load i32, ptr %4, align 4, !tbaa !36
  %13 = icmp sgt i32 %11, %12
  br i1 %13, label %14, label %17

14:                                               ; preds = %8
  %15 = load i32, ptr %3, align 4, !tbaa !36
  %16 = icmp slt i32 %15, 9
  br label %17

17:                                               ; preds = %14, %8
  %18 = phi i1 [ false, %8 ], [ %16, %14 ]
  br i1 %18, label %19, label %24

19:                                               ; preds = %17
  %20 = load i32, ptr %4, align 4, !tbaa !36
  %21 = shl i32 %20, 1
  store i32 %21, ptr %4, align 4, !tbaa !36
  %22 = load i32, ptr %3, align 4, !tbaa !36
  %23 = add nsw i32 %22, 1
  store i32 %23, ptr %3, align 4, !tbaa !36
  br label %8, !llvm.loop !76

24:                                               ; preds = %17
  %25 = load i32, ptr %3, align 4, !tbaa !36
  call void @llvm.lifetime.end.p0(i64 4, ptr %4) #9
  call void @llvm.lifetime.end.p0(i64 4, ptr %3) #9
  ret i32 %25
}

; Function Attrs: inlinehint nounwind uwtable
define internal i32 @get_bits_left(ptr noundef %0) #5 {
  %2 = alloca ptr, align 8
  store ptr %0, ptr %2, align 8, !tbaa !65
  %3 = load ptr, ptr %2, align 8, !tbaa !65
  %4 = getelementptr inbounds nuw %struct.GetBitContext, ptr %3, i32 0, i32 3
  %5 = load i32, ptr %4, align 4, !tbaa !71
  %6 = load ptr, ptr %2, align 8, !tbaa !65
  %7 = call i32 @get_bits_count(ptr noundef %6)
  %8 = sub nsw i32 %5, %7
  ret i32 %8
}

; Function Attrs: inlinehint nounwind uwtable
define internal void @loco_update_rice_param(ptr noundef %0, i32 noundef %1) #5 {
  %3 = alloca ptr, align 8
  %4 = alloca i32, align 4
  store ptr %0, ptr %3, align 8, !tbaa !67
  store i32 %1, ptr %4, align 4, !tbaa !36
  %5 = load i32, ptr %4, align 4, !tbaa !36
  %6 = load ptr, ptr %3, align 8, !tbaa !67
  %7 = getelementptr inbounds nuw %struct.RICEContext, ptr %6, i32 0, i32 4
  %8 = load i32, ptr %7, align 4, !tbaa !58
  %9 = add nsw i32 %8, %5
  store i32 %9, ptr %7, align 4, !tbaa !58
  %10 = load ptr, ptr %3, align 8, !tbaa !67
  %11 = getelementptr inbounds nuw %struct.RICEContext, ptr %10, i32 0, i32 5
  %12 = load i32, ptr %11, align 8, !tbaa !59
  %13 = add nsw i32 %12, 1
  store i32 %13, ptr %11, align 8, !tbaa !59
  %14 = load ptr, ptr %3, align 8, !tbaa !67
  %15 = getelementptr inbounds nuw %struct.RICEContext, ptr %14, i32 0, i32 5
  %16 = load i32, ptr %15, align 8, !tbaa !59
  %17 = icmp eq i32 %16, 16
  br i1 %17, label %18, label %27

18:                                               ; preds = %2
  %19 = load ptr, ptr %3, align 8, !tbaa !67
  %20 = getelementptr inbounds nuw %struct.RICEContext, ptr %19, i32 0, i32 4
  %21 = load i32, ptr %20, align 4, !tbaa !58
  %22 = ashr i32 %21, 1
  store i32 %22, ptr %20, align 4, !tbaa !58
  %23 = load ptr, ptr %3, align 8, !tbaa !67
  %24 = getelementptr inbounds nuw %struct.RICEContext, ptr %23, i32 0, i32 5
  %25 = load i32, ptr %24, align 8, !tbaa !59
  %26 = ashr i32 %25, 1
  store i32 %26, ptr %24, align 8, !tbaa !59
  br label %27

27:                                               ; preds = %18, %2
  ret void
}

; Function Attrs: inlinehint nounwind uwtable
define internal i32 @loco_get_rice(ptr noundef %0) #5 {
  %2 = alloca i32, align 4
  %3 = alloca ptr, align 8
  %4 = alloca i32, align 4
  %5 = alloca i32, align 4
  %6 = alloca i32, align 4
  store ptr %0, ptr %3, align 8, !tbaa !67
  call void @llvm.lifetime.start.p0(i64 4, ptr %4) #9
  %7 = load ptr, ptr %3, align 8, !tbaa !67
  %8 = getelementptr inbounds nuw %struct.RICEContext, ptr %7, i32 0, i32 2
  %9 = load i32, ptr %8, align 4, !tbaa !55
  %10 = icmp sgt i32 %9, 0
  br i1 %10, label %11, label %17

11:                                               ; preds = %1
  %12 = load ptr, ptr %3, align 8, !tbaa !67
  %13 = getelementptr inbounds nuw %struct.RICEContext, ptr %12, i32 0, i32 2
  %14 = load i32, ptr %13, align 4, !tbaa !55
  %15 = add nsw i32 %14, -1
  store i32 %15, ptr %13, align 4, !tbaa !55
  %16 = load ptr, ptr %3, align 8, !tbaa !67
  call void @loco_update_rice_param(ptr noundef %16, i32 noundef 0)
  store i32 0, ptr %2, align 4
  store i32 1, ptr %5, align 4
  br label %122

17:                                               ; preds = %1
  %18 = load ptr, ptr %3, align 8, !tbaa !67
  %19 = getelementptr inbounds nuw %struct.RICEContext, ptr %18, i32 0, i32 0
  %20 = call i32 @get_bits_left(ptr noundef %19)
  %21 = icmp slt i32 %20, 1
  br i1 %21, label %22, label %23

22:                                               ; preds = %17
  store i32 -2147483648, ptr %2, align 4
  store i32 1, ptr %5, align 4
  br label %122

23:                                               ; preds = %17
  %24 = load ptr, ptr %3, align 8, !tbaa !67
  %25 = getelementptr inbounds nuw %struct.RICEContext, ptr %24, i32 0, i32 0
  %26 = load ptr, ptr %3, align 8, !tbaa !67
  %27 = call i32 @loco_get_rice_param(ptr noundef %26)
  %28 = call i32 @get_ur_golomb_jpegls(ptr noundef %25, i32 noundef %27, i32 noundef 2147483647, i32 noundef 0)
  store i32 %28, ptr %4, align 4, !tbaa !36
  %29 = load i32, ptr %4, align 4, !tbaa !36
  %30 = icmp eq i32 %29, -1
  br i1 %30, label %31, label %32

31:                                               ; preds = %23
  store i32 -2147483648, ptr %2, align 4
  store i32 1, ptr %5, align 4
  br label %122

32:                                               ; preds = %23
  %33 = load ptr, ptr %3, align 8, !tbaa !67
  %34 = load i32, ptr %4, align 4, !tbaa !36
  %35 = add i32 %34, 1
  %36 = lshr i32 %35, 1
  call void @loco_update_rice_param(ptr noundef %33, i32 noundef %36)
  %37 = load i32, ptr %4, align 4, !tbaa !36
  %38 = icmp ne i32 %37, 0
  br i1 %38, label %83, label %39

39:                                               ; preds = %32
  %40 = load ptr, ptr %3, align 8, !tbaa !67
  %41 = getelementptr inbounds nuw %struct.RICEContext, ptr %40, i32 0, i32 1
  %42 = load i32, ptr %41, align 8, !tbaa !52
  %43 = icmp sge i32 %42, 0
  br i1 %43, label %44, label %77

44:                                               ; preds = %39
  call void @llvm.lifetime.start.p0(i64 4, ptr %6) #9
  %45 = load ptr, ptr %3, align 8, !tbaa !67
  %46 = getelementptr inbounds nuw %struct.RICEContext, ptr %45, i32 0, i32 0
  %47 = call i32 @get_ur_golomb_jpegls(ptr noundef %46, i32 noundef 2, i32 noundef 2147483647, i32 noundef 0)
  store i32 %47, ptr %6, align 4, !tbaa !36
  %48 = load i32, ptr %6, align 4, !tbaa !36
  %49 = icmp eq i32 %48, -1
  br i1 %49, label %50, label %51

50:                                               ; preds = %44
  store i32 -2147483648, ptr %2, align 4
  store i32 1, ptr %5, align 4
  br label %74

51:                                               ; preds = %44
  %52 = load i32, ptr %6, align 4, !tbaa !36
  %53 = load ptr, ptr %3, align 8, !tbaa !67
  %54 = getelementptr inbounds nuw %struct.RICEContext, ptr %53, i32 0, i32 2
  store i32 %52, ptr %54, align 4, !tbaa !55
  %55 = load ptr, ptr %3, align 8, !tbaa !67
  %56 = getelementptr inbounds nuw %struct.RICEContext, ptr %55, i32 0, i32 2
  %57 = load i32, ptr %56, align 4, !tbaa !55
  %58 = icmp sgt i32 %57, 1
  br i1 %58, label %59, label %68

59:                                               ; preds = %51
  %60 = load ptr, ptr %3, align 8, !tbaa !67
  %61 = getelementptr inbounds nuw %struct.RICEContext, ptr %60, i32 0, i32 2
  %62 = load i32, ptr %61, align 4, !tbaa !55
  %63 = add nsw i32 %62, 1
  %64 = load ptr, ptr %3, align 8, !tbaa !67
  %65 = getelementptr inbounds nuw %struct.RICEContext, ptr %64, i32 0, i32 1
  %66 = load i32, ptr %65, align 8, !tbaa !52
  %67 = add nsw i32 %66, %63
  store i32 %67, ptr %65, align 8, !tbaa !52
  br label %73

68:                                               ; preds = %51
  %69 = load ptr, ptr %3, align 8, !tbaa !67
  %70 = getelementptr inbounds nuw %struct.RICEContext, ptr %69, i32 0, i32 1
  %71 = load i32, ptr %70, align 8, !tbaa !52
  %72 = sub nsw i32 %71, 3
  store i32 %72, ptr %70, align 8, !tbaa !52
  br label %73

73:                                               ; preds = %68, %59
  store i32 0, ptr %5, align 4
  br label %74

74:                                               ; preds = %73, %50
  call void @llvm.lifetime.end.p0(i64 4, ptr %6) #9
  %75 = load i32, ptr %5, align 4
  switch i32 %75, label %122 [
    i32 0, label %76
  ]

76:                                               ; preds = %74
  br label %82

77:                                               ; preds = %39
  %78 = load ptr, ptr %3, align 8, !tbaa !67
  %79 = getelementptr inbounds nuw %struct.RICEContext, ptr %78, i32 0, i32 3
  %80 = load i32, ptr %79, align 8, !tbaa !56
  %81 = add nsw i32 %80, 1
  store i32 %81, ptr %79, align 8, !tbaa !56
  br label %82

82:                                               ; preds = %77, %76
  br label %120

83:                                               ; preds = %32
  %84 = load i32, ptr %4, align 4, !tbaa !36
  %85 = lshr i32 %84, 1
  %86 = load ptr, ptr %3, align 8, !tbaa !67
  %87 = getelementptr inbounds nuw %struct.RICEContext, ptr %86, i32 0, i32 6
  %88 = load i32, ptr %87, align 4, !tbaa !57
  %89 = add i32 %85, %88
  %90 = load i32, ptr %4, align 4, !tbaa !36
  %91 = and i32 %90, 1
  %92 = sub i32 0, %91
  %93 = xor i32 %89, %92
  store i32 %93, ptr %4, align 4, !tbaa !36
  %94 = load ptr, ptr %3, align 8, !tbaa !67
  %95 = getelementptr inbounds nuw %struct.RICEContext, ptr %94, i32 0, i32 3
  %96 = load i32, ptr %95, align 8, !tbaa !56
  %97 = icmp sgt i32 %96, 0
  br i1 %97, label %98, label %119

98:                                               ; preds = %83
  %99 = load ptr, ptr %3, align 8, !tbaa !67
  %100 = getelementptr inbounds nuw %struct.RICEContext, ptr %99, i32 0, i32 3
  %101 = load i32, ptr %100, align 8, !tbaa !56
  %102 = icmp sgt i32 %101, 2
  br i1 %102, label %103, label %111

103:                                              ; preds = %98
  %104 = load ptr, ptr %3, align 8, !tbaa !67
  %105 = getelementptr inbounds nuw %struct.RICEContext, ptr %104, i32 0, i32 3
  %106 = load i32, ptr %105, align 8, !tbaa !56
  %107 = load ptr, ptr %3, align 8, !tbaa !67
  %108 = getelementptr inbounds nuw %struct.RICEContext, ptr %107, i32 0, i32 1
  %109 = load i32, ptr %108, align 8, !tbaa !52
  %110 = add nsw i32 %109, %106
  store i32 %110, ptr %108, align 8, !tbaa !52
  br label %116

111:                                              ; preds = %98
  %112 = load ptr, ptr %3, align 8, !tbaa !67
  %113 = getelementptr inbounds nuw %struct.RICEContext, ptr %112, i32 0, i32 1
  %114 = load i32, ptr %113, align 8, !tbaa !52
  %115 = sub nsw i32 %114, 3
  store i32 %115, ptr %113, align 8, !tbaa !52
  br label %116

116:                                              ; preds = %111, %103
  %117 = load ptr, ptr %3, align 8, !tbaa !67
  %118 = getelementptr inbounds nuw %struct.RICEContext, ptr %117, i32 0, i32 3
  store i32 0, ptr %118, align 8, !tbaa !56
  br label %119

119:                                              ; preds = %116, %83
  br label %120

120:                                              ; preds = %119, %82
  %121 = load i32, ptr %4, align 4, !tbaa !36
  store i32 %121, ptr %2, align 4
  store i32 1, ptr %5, align 4
  br label %122

122:                                              ; preds = %120, %74, %31, %22, %11
  call void @llvm.lifetime.end.p0(i64 4, ptr %4) #9
  %123 = load i32, ptr %2, align 4
  ret i32 %123
}