; Function Attrs: inlinehint nofree norecurse nosync nounwind memory(read, argmem: readwrite, inaccessiblemem: none) uwtable
define internal fastcc i32 @loco_get_rice(ptr noundef nonnull captures(none) %0) unnamed_addr #7 {
  %2 = getelementptr inbounds nuw i8, ptr %0, i64 36
  %3 = load i32, ptr %2, align 4, !tbaa !52
  %4 = icmp sgt i32 %3, 0
  br i1 %4, label %5, label %15

5:                                                ; preds = %1
  %6 = add nsw i32 %3, -1
  store i32 %6, ptr %2, align 4, !tbaa !52
  %7 = getelementptr inbounds nuw i8, ptr %0, i64 44
  %8 = load i32, ptr %7, align 4, !tbaa !55
  %9 = getelementptr inbounds nuw i8, ptr %0, i64 48
  %10 = load i32, ptr %9, align 8, !tbaa !56
  %11 = add nsw i32 %10, 1
  store i32 %11, ptr %9, align 8, !tbaa !56
  %12 = icmp eq i32 %11, 16
  br i1 %12, label %13, label %.critedge

13:                                               ; preds = %5
  %14 = ashr i32 %8, 1
  store i32 %14, ptr %7, align 4, !tbaa !55
  store i32 8, ptr %9, align 8, !tbaa !56
  br label %.critedge

15:                                               ; preds = %1
  %16 = getelementptr i8, ptr %0, i64 16
  %.val = load i32, ptr %16, align 8, !tbaa !49
  %17 = getelementptr i8, ptr %0, i64 20
  %.val38 = load i32, ptr %17, align 4, !tbaa !46
  %.not50 = icmp sgt i32 %.val38, %.val
  br i1 %.not50, label %18, label %.critedge

18:                                               ; preds = %15
  %19 = getelementptr inbounds nuw i8, ptr %0, i64 48
  %20 = load i32, ptr %19, align 8, !tbaa !56
  %21 = getelementptr inbounds nuw i8, ptr %0, i64 44
  %22 = load i32, ptr %21, align 4, !tbaa !55
  %23 = icmp sgt i32 %22, %20
  br i1 %23, label %.lr.ph.i, label %loco_get_rice_param.exit

.lr.ph.i:                                         ; preds = %18, %.lr.ph.i
  %.08.i = phi i32 [ %24, %.lr.ph.i ], [ %20, %18 ]
  %.067.i = phi i32 [ %25, %.lr.ph.i ], [ 0, %18 ]
  %24 = shl i32 %.08.i, 1
  %25 = add nuw nsw i32 %.067.i, 1
  %26 = icmp sgt i32 %22, %24
  %27 = icmp samesign ult i32 %.067.i, 8
  %28 = select i1 %26, i1 %27, i1 false
  br i1 %28, label %.lr.ph.i, label %loco_get_rice_param.exit, !llvm.loop !62

loco_get_rice_param.exit:                         ; preds = %.lr.ph.i, %18
  %.06.lcssa.i = phi i32 [ 0, %18 ], [ %25, %.lr.ph.i ]
  %29 = tail call fastcc i32 @get_ur_golomb_jpegls(ptr noundef %0, i32 noundef %.06.lcssa.i)
  %30 = icmp eq i32 %29, -1
  br i1 %30, label %.critedge, label %31

31:                                               ; preds = %loco_get_rice_param.exit
  %32 = add nuw i32 %29, 1
  %33 = lshr i32 %32, 1
  %34 = load i32, ptr %21, align 4, !tbaa !55
  %35 = add nsw i32 %34, %33
  store i32 %35, ptr %21, align 4, !tbaa !55
  %36 = load i32, ptr %19, align 8, !tbaa !56
  %37 = add nsw i32 %36, 1
  store i32 %37, ptr %19, align 8, !tbaa !56
  %38 = icmp eq i32 %37, 16
  br i1 %38, label %39, label %loco_update_rice_param.exit39

39:                                               ; preds = %31
  %40 = ashr i32 %35, 1
  store i32 %40, ptr %21, align 4, !tbaa !55
  store i32 8, ptr %19, align 8, !tbaa !56
  br label %loco_update_rice_param.exit39

loco_update_rice_param.exit39:                    ; preds = %31, %39
  %.not = icmp eq i32 %29, 0
  br i1 %.not, label %41, label %127

41:                                               ; preds = %loco_update_rice_param.exit39
  %42 = getelementptr inbounds nuw i8, ptr %0, i64 32
  %43 = load i32, ptr %42, align 8, !tbaa !50
  %44 = icmp sgt i32 %43, -1
  br i1 %44, label %45, label %123

45:                                               ; preds = %41
  %46 = load i32, ptr %16, align 8, !tbaa !49
  %47 = getelementptr inbounds nuw i8, ptr %0, i64 24
  %48 = load i32, ptr %47, align 8, !tbaa !47
  %49 = load ptr, ptr %0, align 8, !tbaa !44
  %50 = lshr i32 %46, 3
  %51 = zext nneg i32 %50 to i64
  %52 = getelementptr inbounds nuw i8, ptr %49, i64 %51
  %53 = load i32, ptr %52, align 1, !tbaa !32
  %54 = tail call i32 @llvm.bswap.i32(i32 %53)
  %55 = and i32 %46, 7
  %56 = shl i32 %54, %55
  %.not.i.i = icmp ult i32 %56, 65536
  %57 = lshr i32 %56, 16
  %spec.select.i.i = select i1 %.not.i.i, i32 %56, i32 %57
  %spec.select12.i.i = select i1 %.not.i.i, i32 0, i32 16
  %.not11.i.i = icmp samesign ult i32 %spec.select.i.i, 256
  %58 = lshr i32 %spec.select.i.i, 8
  %59 = or disjoint i32 %spec.select12.i.i, 8
  %.110.i.i = select i1 %.not11.i.i, i32 %spec.select.i.i, i32 %58
  %.1.i.i = select i1 %.not11.i.i, i32 %spec.select12.i.i, i32 %59
  %60 = zext nneg i32 %.110.i.i to i64
  %61 = getelementptr inbounds nuw [256 x i8], ptr @ff_log2_tab, i64 0, i64 %60
  %62 = load i8, ptr %61, align 1, !tbaa !32
  %63 = zext i8 %62 to i32
  %64 = add nuw nsw i32 %.1.i.i, %63
  %65 = icmp samesign ult i32 %64, 9
  br i1 %65, label %.preheader127.i, label %68

.preheader127.i:                                  ; preds = %45
  %66 = icmp ult i32 %56, 128
  br i1 %66, label %.lr.ph.i40, label %.preheader.i

.lr.ph.i40:                                       ; preds = %.preheader127.i
  %67 = load i32, ptr %17, align 4, !tbaa !46
  br label %78

68:                                               ; preds = %45
  %69 = add nsw i32 %64, -2
  %70 = lshr i32 %56, %69
  %71 = shl nuw nsw i32 %64, 2
  %reass.sub60 = sub nsw i32 %70, %71
  %72 = add nsw i32 %reass.sub60, 120
  %73 = add i32 %46, 34
  %74 = sub i32 %73, %64
  %..i = tail call i32 @llvm.umin.i32(i32 %48, i32 %74)
  br label %get_ur_golomb_jpegls.exit

.preheader.i:                                     ; preds = %80, %.preheader127.i
  %.0110.lcssa.i = phi i32 [ %46, %.preheader127.i ], [ %82, %80 ]
  %.0108.lcssa.i = phi i32 [ %56, %.preheader127.i ], [ %89, %80 ]
  %.0.lcssa.i = phi i32 [ 0, %.preheader127.i ], [ %79, %80 ]
  %75 = icmp ne i32 %.0.lcssa.i, 2147483647
  %76 = icmp sgt i32 %.0108.lcssa.i, -1
  %77 = and i1 %76, %75
  br i1 %77, label %.lr.ph137.i, label %._crit_edge.i

78:                                               ; preds = %80, %.lr.ph.i40
  %79 = phi i32 [ 25, %.lr.ph.i40 ], [ %90, %80 ]
  %.0110131.i = phi i32 [ %46, %.lr.ph.i40 ], [ %82, %80 ]
  %.not123.i = icmp ugt i32 %67, %.0110131.i
  br i1 %.not123.i, label %80, label %get_ur_golomb_jpegls.exit.thread

80:                                               ; preds = %78
  %81 = add i32 %.0110131.i, 25
  %82 = tail call i32 @llvm.umin.i32(i32 %48, i32 %81)
  %83 = lshr i32 %82, 3
  %84 = zext nneg i32 %83 to i64
  %85 = getelementptr inbounds nuw i8, ptr %49, i64 %84
  %86 = load i32, ptr %85, align 1, !tbaa !32
  %87 = tail call i32 @llvm.bswap.i32(i32 %86)
  %88 = and i32 %82, 7
  %89 = shl i32 %87, %88
  %90 = add nuw nsw i32 %79, 25
  %91 = icmp ult i32 %89, 128
  br i1 %91, label %78, label %.preheader.i, !llvm.loop !63

.lr.ph137.i:                                      ; preds = %.preheader.i, %.lr.ph137.i
  %.1136.i = phi i32 [ %95, %.lr.ph137.i ], [ %.0.lcssa.i, %.preheader.i ]
  %.1109135.i = phi i32 [ %92, %.lr.ph137.i ], [ %.0108.lcssa.i, %.preheader.i ]
  %.1111134.i = phi i32 [ %94, %.lr.ph137.i ], [ %.0110.lcssa.i, %.preheader.i ]
  %92 = shl nuw i32 %.1109135.i, 1
  %93 = add i32 %.1111134.i, 1
  %94 = tail call i32 @llvm.umin.i32(i32 %48, i32 %93)
  %95 = add nuw nsw i32 %.1136.i, 1
  %96 = icmp ne i32 %95, 2147483647
  %97 = icmp sgt i32 %92, -1
  %98 = select i1 %96, i1 %97, i1 false
  br i1 %98, label %.lr.ph137.i, label %._crit_edge.i, !llvm.loop !64

._crit_edge.i:                                    ; preds = %.lr.ph137.i, %.preheader.i
  %.1111.lcssa.i = phi i32 [ %.0110.lcssa.i, %.preheader.i ], [ %94, %.lr.ph137.i ]
  %.1.lcssa.i = phi i32 [ %.0.lcssa.i, %.preheader.i ], [ %95, %.lr.ph137.i ]
  %99 = add i32 %.1111.lcssa.i, 1
  %100 = tail call i32 @llvm.umin.i32(i32 %48, i32 %99)
  %101 = icmp samesign ult i32 %.1.lcssa.i, 2147483646
  br i1 %101, label %102, label %113

102:                                              ; preds = %._crit_edge.i
  %103 = lshr i32 %100, 3
  %104 = zext nneg i32 %103 to i64
  %105 = getelementptr inbounds nuw i8, ptr %49, i64 %104
  %106 = load i32, ptr %105, align 1, !tbaa !32
  %107 = tail call i32 @llvm.bswap.i32(i32 %106)
  %108 = and i32 %100, 7
  %109 = shl i32 %107, %108
  %110 = add i32 %100, 2
  %111 = tail call i32 @llvm.umin.i32(i32 %48, i32 %110)
  %112 = tail call i32 @llvm.fshl.i32(i32 %.1.lcssa.i, i32 %109, i32 2)
  br label %get_ur_golomb_jpegls.exit

113:                                              ; preds = %._crit_edge.i
  %114 = icmp eq i32 %.1.lcssa.i, 2147483646
  br i1 %114, label %.thread, label %get_ur_golomb_jpegls.exit.thread

.thread:                                          ; preds = %113
  store i32 %100, ptr %16, align 8, !tbaa !49
  store i32 1, ptr %2, align 4, !tbaa !52
  br label %120

get_ur_golomb_jpegls.exit.thread:                 ; preds = %78, %113
  %storemerge124.i.ph = phi i32 [ %100, %113 ], [ %.0110131.i, %78 ]
  store i32 %storemerge124.i.ph, ptr %16, align 8, !tbaa !49
  br label %.critedge

get_ur_golomb_jpegls.exit:                        ; preds = %68, %102
  %storemerge124.i = phi i32 [ %..i, %68 ], [ %111, %102 ]
  %.0106.i = phi i32 [ %72, %68 ], [ %112, %102 ]
  store i32 %storemerge124.i, ptr %16, align 8, !tbaa !49
  %.not37 = icmp eq i32 %.0106.i, -1
  br i1 %.not37, label %.critedge, label %115

115:                                              ; preds = %get_ur_golomb_jpegls.exit
  store i32 %.0106.i, ptr %2, align 4, !tbaa !52
  %116 = icmp sgt i32 %.0106.i, 1
  br i1 %116, label %117, label %120

117:                                              ; preds = %115
  %118 = add nuw nsw i32 %43, 1
  %119 = add nuw nsw i32 %118, %.0106.i
  br label %122

120:                                              ; preds = %.thread, %115
  %121 = add nsw i32 %43, -3
  br label %122

122:                                              ; preds = %120, %117
  %storemerge = phi i32 [ %121, %120 ], [ %119, %117 ]
  store i32 %storemerge, ptr %42, align 8, !tbaa !50
  br label %.critedge

123:                                              ; preds = %41
  %124 = getelementptr inbounds nuw i8, ptr %0, i64 40
  %125 = load i32, ptr %124, align 8, !tbaa !53
  %126 = add nsw i32 %125, 1
  store i32 %126, ptr %124, align 8, !tbaa !53
  br label %.critedge

127:                                              ; preds = %loco_update_rice_param.exit39
  %128 = lshr i32 %29, 1
  %129 = getelementptr inbounds nuw i8, ptr %0, i64 52
  %130 = load i32, ptr %129, align 4, !tbaa !54
  %131 = add i32 %130, %128
  %132 = and i32 %29, 1
  %133 = sub nsw i32 0, %132
  %134 = xor i32 %131, %133
  %135 = getelementptr inbounds nuw i8, ptr %0, i64 40
  %136 = load i32, ptr %135, align 8, !tbaa !53
  %137 = icmp sgt i32 %136, 0
  br i1 %137, label %138, label %.critedge

138:                                              ; preds = %127
  %139 = icmp samesign ugt i32 %136, 2
  %140 = getelementptr inbounds nuw i8, ptr %0, i64 32
  %141 = load i32, ptr %140, align 8, !tbaa !50
  %. = select i1 %139, i32 %136, i32 -3
  %142 = add nsw i32 %141, %.
  store i32 %142, ptr %140, align 8, !tbaa !50
  store i32 0, ptr %135, align 8, !tbaa !53
  br label %.critedge

.critedge:                                        ; preds = %get_ur_golomb_jpegls.exit.thread, %13, %5, %122, %get_ur_golomb_jpegls.exit, %123, %138, %127, %loco_get_rice_param.exit, %15
  %.0 = phi i32 [ -2147483648, %15 ], [ -2147483648, %loco_get_rice_param.exit ], [ %134, %138 ], [ %134, %127 ], [ 0, %123 ], [ -2147483648, %get_ur_golomb_jpegls.exit ], [ 0, %122 ], [ 0, %5 ], [ 0, %13 ], [ -2147483648, %get_ur_golomb_jpegls.exit.thread ]
  ret i32 %.0
}